target datalayout = "e-m:e-p270:32:32-p271:32:32-p272:64:64-i64:64-i128:128-f80:128-n8:16:32:64-S128"
target triple = "x86_64-pc-linux-gnu"

@hf_ipmi_se_1d_restart_cause = internal global i32 0, align 4

; Function Attrs: null_pointer_is_valid sspstrong uwtable
define internal zeroext i1 @ssi_1d_2(ptr noundef %0, ptr noundef %1, ptr noundef %2, i32 noundef %3, i32 noundef %4, i32 noundef %5) #0 {
  %7 = alloca i1, align 1
  %8 = alloca ptr, align 8
  %9 = alloca ptr, align 8
  %10 = alloca ptr, align 8
  %11 = alloca i32, align 4
  %12 = alloca i32, align 4
  %13 = alloca i32, align 4
  store ptr %0, ptr %8, align 8
  store ptr %1, ptr %9, align 8
  store ptr %2, ptr %10, align 8
  store i32 %3, ptr %11, align 4
  store i32 %4, ptr %12, align 4
  store i32 %5, ptr %13, align 4
  %14 = load i32, ptr %11, align 4
  %15 = icmp eq i32 %14, 3
  br i1 %15, label %16, label %24

16:                                               ; preds = %6
  %17 = load i32, ptr %12, align 4
  %18 = icmp eq i32 %17, 7
  br i1 %18, label %19, label %24

19:                                               ; preds = %16
  %20 = load ptr, ptr %8, align 8
  %21 = load i32, ptr @hf_ipmi_se_1d_restart_cause, align 4
  %22 = load ptr, ptr %9, align 8
  %23 = call ptr @proto_tree_add_item(ptr noundef %20, i32 noundef %21, ptr noundef %22, i32 noundef 0, i32 noundef 1, i32 noundef -2147483648)
  store i1 true, ptr %7, align 1
  br label %25

24:                                               ; preds = %16, %6
  store i1 false, ptr %7, align 1
  br label %25

25:                                               ; preds = %24, %19
  %26 = load i1, ptr %7, align 1
  ret i1 %26
}