; Function Attrs: null_pointer_is_valid sspstrong uwtable
define internal noundef zeroext i1 @ssi_1d_2(ptr noundef %0, ptr noundef %1, ptr readnone captures(none) %2, i32 noundef %3, i32 noundef %4, i32 %5) #0 {
  %7 = icmp eq i32 %3, 3
  %8 = icmp eq i32 %4, 7
  %or.cond = and i1 %7, %8
  br i1 %or.cond, label %9, label %12

9:                                                ; preds = %6
  %10 = load i32, ptr @hf_ipmi_se_1d_restart_cause, align 4
  %11 = tail call ptr @proto_tree_add_item(ptr noundef %0, i32 noundef %10, ptr noundef %1, i32 noundef 0, i32 noundef 1, i32 noundef -2147483648)
  br label %12

12:                                               ; preds = %6, %9
  ret i1 %or.cond
}